; ModuleID = '14/753.c'
source_filename = "14/753.c"
target datalayout = "e-m:e-p270:32:32-p271:32:32-p272:64:64-i64:64-f80:128-n8:16:32:64-S128"
target triple = "x86_64-pc-linux-gnu"

@.str = private unnamed_addr constant [3 x i8] c"%d\00", align 1
@.str.1 = private unnamed_addr constant [9 x i8] c"%d %d %d\00", align 1
@.str.2 = private unnamed_addr constant [7 x i8] c"%d %d\0A\00", align 1
@.str.3 = private unnamed_addr constant [6 x i8] c"%d %d\00", align 1

; Function Attrs: noinline nounwind uwtable
define dso_local i32 @main() #0 {
  %1 = alloca i32, align 4
  %2 = alloca i32, align 4
  %3 = alloca i32, align 4
  %4 = alloca i32, align 4
  %5 = alloca i32, align 4
  %6 = alloca i32, align 4
  %7 = alloca i32, align 4
  %8 = alloca i32, align 4
  %9 = alloca i32, align 4
  %10 = alloca i32, align 4
  %11 = alloca [100000 x i32], align 16
  %12 = alloca i32, align 4
  %13 = alloca i32, align 4
  %14 = alloca i32, align 4
  %15 = alloca [100000 x [1 x i32]], align 16
  store i32 0, i32* %1, align 4
  store i32 0, i32* %12, align 4
  store i32 0, i32* %13, align 4
  store i32 0, i32* %14, align 4
  %16 = call i32 (i8*, ...) @__isoc99_scanf(i8* getelementptr inbounds ([3 x i8], [3 x i8]* @.str, i64 0, i64 0), i32* %2)
  store i32 1, i32* %3, align 4
  br label %17

17:                                               ; preds = %45, %0
  %18 = load i32, i32* %3, align 4
  %19 = load i32, i32* %2, align 4
  %20 = icmp sle i32 %18, %19
  br i1 %20, label %21, label %48

21:                                               ; preds = %17
  %22 = load i32, i32* %3, align 4
  %23 = sext i32 %22 to i64
  %24 = getelementptr inbounds [100000 x [1 x i32]], [100000 x [1 x i32]]* %15, i64 0, i64 %23
  %25 = getelementptr inbounds [1 x i32], [1 x i32]* %24, i64 0, i64 0
  %26 = load i32, i32* %3, align 4
  %27 = sext i32 %26 to i64
  %28 = getelementptr inbounds [100000 x [1 x i32]], [100000 x [1 x i32]]* %15, i64 0, i64 %27
  %29 = getelementptr inbounds [1 x i32], [1 x i32]* %28, i64 0, i64 1
  %30 = call i32 (i8*, ...) @__isoc99_scanf(i8* getelementptr inbounds ([9 x i8], [9 x i8]* @.str.1, i64 0, i64 0), i32* %4, i32* %25, i32* %29)
  %31 = load i32, i32* %3, align 4
  %32 = sext i32 %31 to i64
  %33 = getelementptr inbounds [100000 x [1 x i32]], [100000 x [1 x i32]]* %15, i64 0, i64 %32
  %34 = getelementptr inbounds [1 x i32], [1 x i32]* %33, i64 0, i64 0
  %35 = load i32, i32* %34, align 4
  %36 = load i32, i32* %3, align 4
  %37 = sext i32 %36 to i64
  %38 = getelementptr inbounds [100000 x [1 x i32]], [100000 x [1 x i32]]* %15, i64 0, i64 %37
  %39 = getelementptr inbounds [1 x i32], [1 x i32]* %38, i64 0, i64 1
  %40 = load i32, i32* %39, align 4
  %41 = add nsw i32 %35, %40
  %42 = load i32, i32* %3, align 4
  %43 = sext i32 %42 to i64
  %44 = getelementptr inbounds [100000 x i32], [100000 x i32]* %11, i64 0, i64 %43
  store i32 %41, i32* %44, align 4
  br label %45

45:                                               ; preds = %21
  %46 = load i32, i32* %3, align 4
  %47 = add nsw i32 %46, 1
  store i32 %47, i32* %3, align 4
  br label %17

48:                                               ; preds = %17
  store i32 1, i32* %8, align 4
  br label %49

49:                                               ; preds = %67, %48
  %50 = load i32, i32* %8, align 4
  %51 = load i32, i32* %2, align 4
  %52 = icmp sle i32 %50, %51
  br i1 %52, label %53, label %70

53:                                               ; preds = %49
  %54 = load i32, i32* %8, align 4
  %55 = sext i32 %54 to i64
  %56 = getelementptr inbounds [100000 x i32], [100000 x i32]* %11, i64 0, i64 %55
  %57 = load i32, i32* %56, align 4
  %58 = load i32, i32* %12, align 4
  %59 = icmp sgt i32 %57, %58
  br i1 %59, label %60, label %66

60:                                               ; preds = %53
  %61 = load i32, i32* %8, align 4
  %62 = sext i32 %61 to i64
  %63 = getelementptr inbounds [100000 x i32], [100000 x i32]* %11, i64 0, i64 %62
  %64 = load i32, i32* %63, align 4
  store i32 %64, i32* %12, align 4
  %65 = load i32, i32* %8, align 4
  store i32 %65, i32* %5, align 4
  br label %66

66:                                               ; preds = %60, %53
  br label %67

67:                                               ; preds = %66
  %68 = load i32, i32* %8, align 4
  %69 = add nsw i32 %68, 1
  store i32 %69, i32* %8, align 4
  br label %49

70:                                               ; preds = %49
  store i32 1, i32* %9, align 4
  br label %71

71:                                               ; preds = %93, %70
  %72 = load i32, i32* %9, align 4
  %73 = load i32, i32* %2, align 4
  %74 = icmp sle i32 %72, %73
  br i1 %74, label %75, label %96

75:                                               ; preds = %71
  %76 = load i32, i32* %9, align 4
  %77 = sext i32 %76 to i64
  %78 = getelementptr inbounds [100000 x i32], [100000 x i32]* %11, i64 0, i64 %77
  %79 = load i32, i32* %78, align 4
  %80 = load i32, i32* %13, align 4
  %81 = icmp sgt i32 %79, %80
  br i1 %81, label %82, label %92

82:                                               ; preds = %75
  %83 = load i32, i32* %9, align 4
  %84 = load i32, i32* %5, align 4
  %85 = icmp ne i32 %83, %84
  br i1 %85, label %86, label %92

86:                                               ; preds = %82
  %87 = load i32, i32* %9, align 4
  %88 = sext i32 %87 to i64
  %89 = getelementptr inbounds [100000 x i32], [100000 x i32]* %11, i64 0, i64 %88
  %90 = load i32, i32* %89, align 4
  store i32 %90, i32* %13, align 4
  %91 = load i32, i32* %9, align 4
  store i32 %91, i32* %6, align 4
  br label %92

92:                                               ; preds = %86, %82, %75
  br label %93

93:                                               ; preds = %92
  %94 = load i32, i32* %9, align 4
  %95 = add nsw i32 %94, 1
  store i32 %95, i32* %9, align 4
  br label %71

96:                                               ; preds = %71
  store i32 1, i32* %10, align 4
  br label %97

97:                                               ; preds = %123, %96
  %98 = load i32, i32* %10, align 4
  %99 = load i32, i32* %2, align 4
  %100 = icmp sle i32 %98, %99
  br i1 %100, label %101, label %126

101:                                              ; preds = %97
  %102 = load i32, i32* %10, align 4
  %103 = sext i32 %102 to i64
  %104 = getelementptr inbounds [100000 x i32], [100000 x i32]* %11, i64 0, i64 %103
  %105 = load i32, i32* %104, align 4
  %106 = load i32, i32* %13, align 4
  %107 = icmp slt i32 %105, %106
  br i1 %107, label %108, label %122

108:                                              ; preds = %101
  %109 = load i32, i32* %10, align 4
  %110 = sext i32 %109 to i64
  %111 = getelementptr inbounds [100000 x i32], [100000 x i32]* %11, i64 0, i64 %110
  %112 = load i32, i32* %111, align 4
  %113 = load i32, i32* %14, align 4
  %114 = icmp sgt i32 %112, %113
  br i1 %114, label %115, label %121

115:                                              ; preds = %108
  %116 = load i32, i32* %10, align 4
  %117 = sext i32 %116 to i64
  %118 = getelementptr inbounds [100000 x i32], [100000 x i32]* %11, i64 0, i64 %117
  %119 = load i32, i32* %118, align 4
  store i32 %119, i32* %14, align 4
  %120 = load i32, i32* %10, align 4
  store i32 %120, i32* %7, align 4
  br label %121

121:                                              ; preds = %115, %108
  br label %122

122:                                              ; preds = %121, %101
  br label %123

123:                                              ; preds = %122
  %124 = load i32, i32* %10, align 4
  %125 = add nsw i32 %124, 1
  store i32 %125, i32* %10, align 4
  br label %97

126:                                              ; preds = %97
  %127 = load i32, i32* %5, align 4
  %128 = load i32, i32* %12, align 4
  %129 = call i32 (i8*, ...) @printf(i8* getelementptr inbounds ([7 x i8], [7 x i8]* @.str.2, i64 0, i64 0), i32 %127, i32 %128)
  %130 = load i32, i32* %6, align 4
  %131 = load i32, i32* %13, align 4
  %132 = call i32 (i8*, ...) @printf(i8* getelementptr inbounds ([7 x i8], [7 x i8]* @.str.2, i64 0, i64 0), i32 %130, i32 %131)
  %133 = load i32, i32* %7, align 4
  %134 = load i32, i32* %14, align 4
  %135 = call i32 (i8*, ...) @printf(i8* getelementptr inbounds ([6 x i8], [6 x i8]* @.str.3, i64 0, i64 0), i32 %133, i32 %134)
  ret i32 0
}

declare dso_local i32 @__isoc99_scanf(i8*, ...) #1

declare dso_local i32 @printf(i8*, ...) #1


!llvm.module.flags = !{!0}
!llvm.ident = !{!1}

!0 = !{i32 1, !"wchar_size", i32 4}
!1 = !{!"clang version 10.0.0-4ubuntu1 "}
